0000: 04 01 00 00 00 00 00 00 00 00 PUSH 0
000a: 14 02 00 POP rax
000d: 04 01 00 00 00 00 00 00 00 00 PUSH 0
0017: 14 02 01 POP rbx
001a: 1c ff ff ff ff CALL : bruteforce
001f: 04 02 00 PUSH rax
0022: 04 01 00 00 00 00 00 00 f0 3f PUSH 1
002c: 01 ADD
002d: 14 02 00 POP rax
0030: 04 02 00 PUSH rax
0033: 04 01 00 00 00 00 00 00 69 40 PUSH 200
003d: 17 ff ff ff ff JAE : 1
0042: 15 1a 00 00 00 JMP : 3
0047: 04 02 01 PUSH rbx
004a: 04 01 00 00 00 00 00 00 f0 3f PUSH 1
0054: 01 ADD
0055: 14 02 01 POP rbx
0058: 04 02 01 PUSH rbx
005b: 04 01 00 00 00 00 00 00 69 40 PUSH 200
0065: 17 ff ff ff ff JAE : 6
006a: 15 1a 00 00 00 JMP : 3
006f: 04 01 00 00 00 00 00 00 00 00 PUSH 0
0079: 14 02 00 POP rax
007c: 15 47 00 00 00 JMP : 2
0081: 04 03 00 00 00 00 00 00 59 c0 00 PUSH rax + -100
008c: 04 03 00 00 00 00 00 00 59 c0 00 PUSH rax + -100
0097: 02 MUL
0098: 04 03 00 00 00 00 00 00 59 c0 01 PUSH rbx + -100
00a3: 04 03 00 00 00 00 00 00 59 c0 01 PUSH rbx + -100
00ae: 02 MUL
00af: 01 ADD
00b0: 14 02 02 POP rcx
00b3: 04 02 02 PUSH rcx
00b6: 04 01 00 00 00 00 00 88 c3 40 PUSH 10000
00c0: 19 ff ff ff ff JBE : next
00c5: 15 ff ff ff ff JMP : fillBlack
00ca: 04 02 02 PUSH rcx
00cd: 04 01 00 00 00 00 00 00 f0 3f PUSH 1
00d7: 17 ff ff ff ff JAE : fillWhite
00dc: 15 ff ff ff ff JMP : fillBlack
00e1: 04 01 00 00 00 00 00 00 00 00 PUSH 0
00eb: 04 02 00 PUSH rax
00ee: 04 01 00 00 00 00 00 00 f0 3f PUSH 1
00f8: 02 MUL
00f9: 04 02 01 PUSH rbx
00fc: 04 01 00 00 00 00 00 00 69 40 PUSH 200
0106: 01 ADD
0107: 14 02 03 POP rdx
010a: 14 06 03 POP [ rdx ]
010d: 1d RET
010e: 04 01 00 00 00 00 00 00 69 40 PUSH 200
0118: 04 02 00 PUSH rax
011b: 11 SUB
011c: 04 02 00 PUSH rax
011f: 04 02 00 PUSH rax
0122: 02 MUL
0123: 02 MUL
0124: 04 01 00 00 00 00 00 00 79 40 PUSH 400 
012e: 12 DIV
012f: 04 01 00 00 00 00 00 00 00 40 PUSH 2
0139: 12 DIV
013a: 04 02 00 PUSH rax
013d: 04 01 00 00 00 00 00 00 f0 3f PUSH 1
0147: 02 MUL
0148: 04 02 01 PUSH rbx
014b: 04 01 00 00 00 00 00 00 69 40 PUSH 200
0155: 02 MUL
0156: 01 ADD
0157: 14 02 03 POP rdx
015a: 14 06 03 POP [ rdx ]
015d: 1d RET
015e: 04 01 00 00 00 00 00 00 f0 3f PUSH 1
0000: 04 01 00 00 00 00 00 00 00 00 PUSH 0
000a: 14 02 00 POP rax
000d: 04 01 00 00 00 00 00 00 00 00 PUSH 0
0017: 14 02 01 POP rbx
001a: 1c 81 00 00 00 CALL : bruteforce
001f: 04 02 00 PUSH rax
0022: 04 01 00 00 00 00 00 00 f0 3f PUSH 1
002c: 01 ADD
002d: 14 02 00 POP rax
0030: 04 02 00 PUSH rax
0033: 04 01 00 00 00 00 00 00 69 40 PUSH 200
003d: 17 6f 00 00 00 JAE : 1
0042: 15 1a 00 00 00 JMP : 3
0047: 04 02 01 PUSH rbx
004a: 04 01 00 00 00 00 00 00 f0 3f PUSH 1
0054: 01 ADD
0055: 14 02 01 POP rbx
0058: 04 02 01 PUSH rbx
005b: 04 01 00 00 00 00 00 00 69 40 PUSH 200
0065: 17 5e 01 00 00 JAE : 6
006a: 15 1a 00 00 00 JMP : 3
006f: 04 01 00 00 00 00 00 00 00 00 PUSH 0
0079: 14 02 00 POP rax
007c: 15 47 00 00 00 JMP : 2
0081: 04 03 00 00 00 00 00 00 59 c0 00 PUSH rax + -100
008c: 04 03 00 00 00 00 00 00 59 c0 00 PUSH rax + -100
0097: 02 MUL
0098: 04 03 00 00 00 00 00 00 59 c0 01 PUSH rbx + -100
00a3: 04 03 00 00 00 00 00 00 59 c0 01 PUSH rbx + -100
00ae: 02 MUL
00af: 01 ADD
00b0: 14 02 02 POP rcx
00b3: 04 02 02 PUSH rcx
00b6: 04 01 00 00 00 00 00 88 c3 40 PUSH 10000
00c0: 19 ca 00 00 00 JBE : next
00c5: 15 e1 00 00 00 JMP : fillBlack
00ca: 04 02 02 PUSH rcx
00cd: 04 01 00 00 00 00 00 00 f0 3f PUSH 1
00d7: 17 0e 01 00 00 JAE : fillWhite
00dc: 15 e1 00 00 00 JMP : fillBlack
00e1: 04 01 00 00 00 00 00 00 00 00 PUSH 0
00eb: 04 02 00 PUSH rax
00ee: 04 01 00 00 00 00 00 00 f0 3f PUSH 1
00f8: 02 MUL
00f9: 04 02 01 PUSH rbx
00fc: 04 01 00 00 00 00 00 00 69 40 PUSH 200
0106: 01 ADD
0107: 14 02 03 POP rdx
010a: 14 06 03 POP [ rdx ]
010d: 1d RET
010e: 04 01 00 00 00 00 00 00 69 40 PUSH 200
0118: 04 02 00 PUSH rax
011b: 11 SUB
011c: 04 02 00 PUSH rax
011f: 04 02 00 PUSH rax
0122: 02 MUL
0123: 02 MUL
0124: 04 01 00 00 00 00 00 00 79 40 PUSH 400 
012e: 12 DIV
012f: 04 01 00 00 00 00 00 00 00 40 PUSH 2
0139: 12 DIV
013a: 04 02 00 PUSH rax
013d: 04 01 00 00 00 00 00 00 f0 3f PUSH 1
0147: 02 MUL
0148: 04 02 01 PUSH rbx
014b: 04 01 00 00 00 00 00 00 69 40 PUSH 200
0155: 02 MUL
0156: 01 ADD
0157: 14 02 03 POP rdx
015a: 14 06 03 POP [ rdx ]
015d: 1d RET
015e: 04 01 00 00 00 00 00 00 f0 3f PUSH 1
